target datalayout = "e-m:e-p270:32:32-p271:32:32-p272:64:64-i64:64-i128:128-f80:128-n8:16:32:64-S128"
target triple = "x86_64-pc-linux-gnu"

%struct.pmix_lock_t = type { i32, %struct.pmix_mutex_t, %union.pthread_cond_t, i8 }
%struct.pmix_mutex_t = type { %struct.pmix_object_t, %union.pthread_mutex_t }
%struct.pmix_object_t = type { %union.pthread_mutex_t, ptr, i32, %struct.pmix_tma }
%struct.pmix_tma = type { ptr, ptr, ptr, ptr, ptr, ptr, ptr, ptr }
%union.pthread_mutex_t = type { %struct.__pthread_mutex_s }
%struct.__pthread_mutex_s = type { i32, i32, i32, i32, i32, i16, i16, %struct.__pthread_internal_list }
%struct.__pthread_internal_list = type { ptr, ptr }
%union.pthread_cond_t = type { %struct.__pthread_cond_s }
%struct.__pthread_cond_s = type { %union.__atomic_wide_counter, %union.__atomic_wide_counter, [2 x i32], [2 x i32], i32, i32, [2 x i32] }
%union.__atomic_wide_counter = type { i64 }
%struct.pmix_globals_t = type { i32, %struct.pmix_proc, %struct.pmix_value, %struct.pmix_value, ptr, i32, i32, ptr, i32, i32, i32, i32, i32, ptr, ptr, i32, %struct.pmix_events_t, i8, i8, %struct.timeval, %struct.pmix_list_t, %struct.pmix_pointer_array_t, i32, i32, %struct.pmix_hotel_t, i8, %struct.pmix_list_t, i8, i8, i8, i64, %struct.pmix_list_t, %struct.pmix_topology_t, %struct.pmix_cpuset_t, i8, i8, %struct.pmix_iof_flags_t, %struct.pmix_keyindex_t }
%struct.pmix_proc = type { [256 x i8], i32 }
%struct.pmix_value = type { i16, %union.anon.9 }
%union.anon.9 = type { %struct.pmix_envar_t }
%struct.pmix_envar_t = type { ptr, ptr, i8 }
%struct.pmix_events_t = type { %struct.pmix_object_t, i64, ptr, ptr, %struct.pmix_list_t, %struct.pmix_list_t, %struct.pmix_list_t, %struct.pmix_list_t }
%struct.timeval = type { i64, i64 }
%struct.pmix_pointer_array_t = type { %struct.pmix_object_t, i32, i32, i32, i32, i32, ptr, ptr }
%struct.pmix_hotel_t = type { %struct.pmix_object_t, i32, ptr, %struct.timeval, ptr, ptr, ptr, ptr, i32 }
%struct.pmix_list_t = type { %struct.pmix_object_t, %struct.pmix_list_item_t, i64 }
%struct.pmix_list_item_t = type { %struct.pmix_object_t, ptr, ptr, i32 }
%struct.pmix_topology_t = type { ptr, ptr }
%struct.pmix_cpuset_t = type { ptr, ptr }
%struct.pmix_iof_flags_t = type { i8, i8, i8, i8, i8, i8, i8, ptr, ptr, i8, i8, i8, i8, i8, i8 }
%struct.pmix_keyindex_t = type { %struct.pmix_object_t, ptr, i32 }
%struct.pmix_class_t = type { ptr, ptr, ptr, ptr, i32, i32, ptr, ptr, i64 }
%struct.pmix_cb_t = type { %struct.pmix_list_item_t, %struct.event, %struct.pmix_lock_t, i8, i32, i32, i8, %struct.pmix_buffer_t, %union.anon.8, i64, ptr, %struct.pmix_name_t, ptr, ptr, ptr, ptr, i64, ptr, i64, ptr, i8, i64, %struct.pmix_list_t, i8, ptr, i8, ptr, ptr }
%struct.event = type { %struct.event_callback, %union.anon.0, i32, ptr, %union.anon.2, i16, i16, %struct.timeval }
%struct.event_callback = type { %struct.anon, i16, i8, i8, %union.anon, ptr }
%struct.anon = type { ptr, ptr }
%union.anon = type { ptr }
%union.anon.0 = type { %struct.anon.1 }
%struct.anon.1 = type { ptr, ptr }
%union.anon.2 = type { %struct.anon.3 }
%struct.anon.3 = type { %struct.anon.4, %struct.timeval }
%struct.anon.4 = type { ptr, ptr }
%struct.pmix_buffer_t = type { %struct.pmix_object_t, i8, ptr, ptr, ptr, i64, i64 }
%union.anon.8 = type { ptr }
%struct.pmix_name_t = type { ptr, i32 }

@pmix_global_lock = external global %struct.pmix_lock_t, align 8
@pmix_globals = external global %struct.pmix_globals_t, align 8
@pmix_class_init_epoch = external global i32, align 4
@pmix_cb_t_class = external global %struct.pmix_class_t, align 8

; Function Attrs: inlinehint nounwind uwtable
define internal void @pmix_obj_run_destructors(ptr noundef %0) #2 {
  %2 = alloca ptr, align 8
  %3 = alloca ptr, align 8
  store ptr %0, ptr %2, align 8, !tbaa !66
  call void @llvm.lifetime.start.p0(i64 8, ptr %3) #10
  %4 = load ptr, ptr %2, align 8, !tbaa !66
  %5 = getelementptr inbounds nuw %struct.pmix_object_t, ptr %4, i32 0, i32 1
  %6 = load ptr, ptr %5, align 8, !tbaa !44
  %7 = getelementptr inbounds nuw %struct.pmix_class_t, ptr %6, i32 0, i32 7
  %8 = load ptr, ptr %7, align 8, !tbaa !82
  store ptr %8, ptr %3, align 8, !tbaa !3
  br label %9

9:                                                ; preds = %13, %1
  %10 = load ptr, ptr %3, align 8, !tbaa !3
  %11 = load ptr, ptr %10, align 8, !tbaa !3
  %12 = icmp ne ptr null, %11
  br i1 %12, label %13, label %19

13:                                               ; preds = %9
  %14 = load ptr, ptr %3, align 8, !tbaa !3
  %15 = load ptr, ptr %14, align 8, !tbaa !3
  %16 = load ptr, ptr %2, align 8, !tbaa !66
  call void %15(ptr noundef %16)
  %17 = load ptr, ptr %3, align 8, !tbaa !3
  %18 = getelementptr inbounds nuw ptr, ptr %17, i32 1
  store ptr %18, ptr %3, align 8, !tbaa !3
  br label %9, !llvm.loop !83

19:                                               ; preds = %9
  call void @llvm.lifetime.end.p0(i64 8, ptr %3) #10
  ret void
}

; Function Attrs: inlinehint nounwind uwtable
define internal void @pmix_obj_run_constructors(ptr noundef %0) #2 {
  %2 = alloca ptr, align 8
  %3 = alloca ptr, align 8
  store ptr %0, ptr %2, align 8, !tbaa !66
  call void @llvm.lifetime.start.p0(i64 8, ptr %3) #10
  %4 = load ptr, ptr %2, align 8, !tbaa !66
  %5 = getelementptr inbounds nuw %struct.pmix_object_t, ptr %4, i32 0, i32 1
  %6 = load ptr, ptr %5, align 8, !tbaa !44
  %7 = getelementptr inbounds nuw %struct.pmix_class_t, ptr %6, i32 0, i32 6
  %8 = load ptr, ptr %7, align 8, !tbaa !79
  store ptr %8, ptr %3, align 8, !tbaa !3
  br label %9

9:                                                ; preds = %13, %1
  %10 = load ptr, ptr %3, align 8, !tbaa !3
  %11 = load ptr, ptr %10, align 8, !tbaa !3
  %12 = icmp ne ptr null, %11
  br i1 %12, label %13, label %19

13:                                               ; preds = %9
  %14 = load ptr, ptr %3, align 8, !tbaa !3
  %15 = load ptr, ptr %14, align 8, !tbaa !3
  %16 = load ptr, ptr %2, align 8, !tbaa !66
  call void %15(ptr noundef %16)
  %17 = load ptr, ptr %3, align 8, !tbaa !3
  %18 = getelementptr inbounds nuw ptr, ptr %17, i32 1
  store ptr %18, ptr %3, align 8, !tbaa !3
  br label %9, !llvm.loop !80

19:                                               ; preds = %9
  call void @llvm.lifetime.end.p0(i64 8, ptr %3) #10
  ret void
}

; Function Attrs: inlinehint nounwind uwtable
define internal void @pmix_obj_construct_tma(ptr noundef %0, ptr noundef %1) #2 {
  %3 = alloca ptr, align 8
  %4 = alloca ptr, align 8
  store ptr %0, ptr %3, align 8, !tbaa !66
  store ptr %1, ptr %4, align 8, !tbaa !68
  %5 = load ptr, ptr %4, align 8, !tbaa !68
  %6 = icmp eq ptr null, %5
  br i1 %6, label %7, label %32

7:                                                ; preds = %2
  %8 = load ptr, ptr %3, align 8, !tbaa !66
  %9 = getelementptr inbounds nuw %struct.pmix_object_t, ptr %8, i32 0, i32 3
  %10 = getelementptr inbounds nuw %struct.pmix_tma, ptr %9, i32 0, i32 0
  store ptr null, ptr %10, align 8, !tbaa !70
  %11 = load ptr, ptr %3, align 8, !tbaa !66
  %12 = getelementptr inbounds nuw %struct.pmix_object_t, ptr %11, i32 0, i32 3
  %13 = getelementptr inbounds nuw %struct.pmix_tma, ptr %12, i32 0, i32 1
  store ptr null, ptr %13, align 8, !tbaa !71
  %14 = load ptr, ptr %3, align 8, !tbaa !66
  %15 = getelementptr inbounds nuw %struct.pmix_object_t, ptr %14, i32 0, i32 3
  %16 = getelementptr inbounds nuw %struct.pmix_tma, ptr %15, i32 0, i32 2
  store ptr null, ptr %16, align 8, !tbaa !72
  %17 = load ptr, ptr %3, align 8, !tbaa !66
  %18 = getelementptr inbounds nuw %struct.pmix_object_t, ptr %17, i32 0, i32 3
  %19 = getelementptr inbounds nuw %struct.pmix_tma, ptr %18, i32 0, i32 3
  store ptr null, ptr %19, align 8, !tbaa !73
  %20 = load ptr, ptr %3, align 8, !tbaa !66
  %21 = getelementptr inbounds nuw %struct.pmix_object_t, ptr %20, i32 0, i32 3
  %22 = getelementptr inbounds nuw %struct.pmix_tma, ptr %21, i32 0, i32 4
  store ptr null, ptr %22, align 8, !tbaa !74
  %23 = load ptr, ptr %3, align 8, !tbaa !66
  %24 = getelementptr inbounds nuw %struct.pmix_object_t, ptr %23, i32 0, i32 3
  %25 = getelementptr inbounds nuw %struct.pmix_tma, ptr %24, i32 0, i32 5
  store ptr null, ptr %25, align 8, !tbaa !75
  %26 = load ptr, ptr %3, align 8, !tbaa !66
  %27 = getelementptr inbounds nuw %struct.pmix_object_t, ptr %26, i32 0, i32 3
  %28 = getelementptr inbounds nuw %struct.pmix_tma, ptr %27, i32 0, i32 6
  store ptr null, ptr %28, align 8, !tbaa !76
  %29 = load ptr, ptr %3, align 8, !tbaa !66
  %30 = getelementptr inbounds nuw %struct.pmix_object_t, ptr %29, i32 0, i32 3
  %31 = getelementptr inbounds nuw %struct.pmix_tma, ptr %30, i32 0, i32 7
  store ptr null, ptr %31, align 8, !tbaa !77
  br label %36

32:                                               ; preds = %2
  %33 = load ptr, ptr %3, align 8, !tbaa !66
  %34 = getelementptr inbounds nuw %struct.pmix_object_t, ptr %33, i32 0, i32 3
  %35 = load ptr, ptr %4, align 8, !tbaa !68
  call void @llvm.memcpy.p0.p0.i64(ptr align 8 %34, ptr align 8 %35, i64 64, i1 false), !tbaa.struct !78
  br label %36

36:                                               ; preds = %32, %7
  ret void
}

; Function Attrs: inlinehint nounwind uwtable
define internal void @pmix_mutex_unlock(ptr noundef %0) #2 {
  %2 = alloca ptr, align 8
  store ptr %0, ptr %2, align 8, !tbaa !64
  %3 = load ptr, ptr %2, align 8, !tbaa !64
  %4 = getelementptr inbounds nuw %struct.pmix_mutex_t, ptr %3, i32 0, i32 1
  %5 = call i32 @pthread_mutex_unlock(ptr noundef %4) #10
  ret void
}

; Function Attrs: inlinehint nounwind uwtable
define internal void @pmix_atomic_wmb() #2 {
  fence release
  ret void
}

; Function Attrs: inlinehint nounwind uwtable
define internal void @pmix_atomic_rmb() #2 {
  fence acquire
  ret void
}

; Function Attrs: inlinehint nounwind uwtable
define internal void @pmix_mutex_lock(ptr noundef %0) #2 {
  %2 = alloca ptr, align 8
  store ptr %0, ptr %2, align 8, !tbaa !64
  %3 = load ptr, ptr %2, align 8, !tbaa !64
  %4 = getelementptr inbounds nuw %struct.pmix_mutex_t, ptr %3, i32 0, i32 1
  %5 = call i32 @pthread_mutex_lock(ptr noundef %4) #10
  ret void
}

; Function Attrs: nounwind uwtable
define i32 @PMIx_Load_topology(ptr noundef %0) #0 {
  %2 = alloca i32, align 4
  %3 = alloca ptr, align 8
  %4 = alloca i32, align 4
  %5 = alloca %struct.pmix_cb_t, align 8
  %6 = alloca i32, align 4
  store ptr %0, ptr %3, align 8, !tbaa !3
  call void @llvm.lifetime.start.p0(i64 4, ptr %4) #10
  call void @llvm.lifetime.start.p0(i64 1112, ptr %5) #10
  br label %7

7:                                                ; preds = %1
  call void @pmix_mutex_lock(ptr noundef getelementptr inbounds nuw (%struct.pmix_lock_t, ptr @pmix_global_lock, i32 0, i32 1))
  br label %8

8:                                                ; preds = %11, %7
  %9 = load volatile i8, ptr getelementptr inbounds nuw (%struct.pmix_lock_t, ptr @pmix_global_lock, i32 0, i32 3), align 8, !tbaa !7, !range !15, !noundef !16
  %10 = trunc i8 %9 to i1
  br i1 %10, label %11, label %13

11:                                               ; preds = %8
  %12 = call i32 @pthread_cond_wait(ptr noundef getelementptr inbounds nuw (%struct.pmix_lock_t, ptr @pmix_global_lock, i32 0, i32 2), ptr noundef getelementptr inbounds nuw (%struct.pmix_mutex_t, ptr getelementptr inbounds nuw (%struct.pmix_lock_t, ptr @pmix_global_lock, i32 0, i32 1), i32 0, i32 1))
  br label %8, !llvm.loop !17

13:                                               ; preds = %8
  call void @pmix_atomic_rmb()
  store volatile i8 1, ptr getelementptr inbounds nuw (%struct.pmix_lock_t, ptr @pmix_global_lock, i32 0, i32 3), align 8, !tbaa !7
  br label %14

14:                                               ; preds = %13
  br label %15

15:                                               ; preds = %14
  %16 = load i32, ptr @pmix_globals, align 8, !tbaa !19
  %17 = icmp sle i32 %16, 0
  br i1 %17, label %18, label %23

18:                                               ; preds = %15
  br label %19

19:                                               ; preds = %18
  store volatile i8 0, ptr getelementptr inbounds nuw (%struct.pmix_lock_t, ptr @pmix_global_lock, i32 0, i32 3), align 8, !tbaa !7
  call void @pmix_atomic_wmb()
  %20 = call i32 @pthread_cond_broadcast(ptr noundef getelementptr inbounds nuw (%struct.pmix_lock_t, ptr @pmix_global_lock, i32 0, i32 2)) #10
  call void @pmix_mutex_unlock(ptr noundef getelementptr inbounds nuw (%struct.pmix_lock_t, ptr @pmix_global_lock, i32 0, i32 1))
  br label %21

21:                                               ; preds = %19
  br label %22

22:                                               ; preds = %21
  store i32 -31, ptr %2, align 4
  store i32 1, ptr %6, align 4
  br label %79

23:                                               ; preds = %15
  br label %24

24:                                               ; preds = %23
  store volatile i8 0, ptr getelementptr inbounds nuw (%struct.pmix_lock_t, ptr @pmix_global_lock, i32 0, i32 3), align 8, !tbaa !7
  call void @pmix_atomic_wmb()
  %25 = call i32 @pthread_cond_broadcast(ptr noundef getelementptr inbounds nuw (%struct.pmix_lock_t, ptr @pmix_global_lock, i32 0, i32 2)) #10
  call void @pmix_mutex_unlock(ptr noundef getelementptr inbounds nuw (%struct.pmix_lock_t, ptr @pmix_global_lock, i32 0, i32 1))
  br label %26

26:                                               ; preds = %24
  br label %27

27:                                               ; preds = %26
  br label %28

28:                                               ; preds = %27
  br label %29

29:                                               ; preds = %28
  br label %30

30:                                               ; preds = %29
  %31 = load i32, ptr @pmix_class_init_epoch, align 4, !tbaa !41
  %32 = load i32, ptr getelementptr inbounds nuw (%struct.pmix_class_t, ptr @pmix_cb_t_class, i32 0, i32 4), align 8, !tbaa !42
  %33 = icmp ne i32 %31, %32
  br i1 %33, label %34, label %35

34:                                               ; preds = %30
  call void @pmix_class_initialize(ptr noundef @pmix_cb_t_class)
  br label %35

35:                                               ; preds = %34, %30
  %36 = getelementptr inbounds nuw %struct.pmix_object_t, ptr %5, i32 0, i32 1
  store ptr @pmix_cb_t_class, ptr %36, align 8, !tbaa !44
  %37 = getelementptr inbounds nuw %struct.pmix_object_t, ptr %5, i32 0, i32 2
  store i32 1, ptr %37, align 8, !tbaa !45
  call void @pmix_obj_construct_tma(ptr noundef %5, ptr noundef null)
  call void @pmix_obj_run_constructors(ptr noundef %5)
  br label %38

38:                                               ; preds = %35
  br label %39

39:                                               ; preds = %38
  br label %40

40:                                               ; preds = %39
  br label %41

41:                                               ; preds = %40
  br label %42

42:                                               ; preds = %41
  br label %43

43:                                               ; preds = %42
  %44 = load ptr, ptr %3, align 8, !tbaa !3
  %45 = getelementptr inbounds nuw %struct.pmix_cb_t, ptr %5, i32 0, i32 27
  store ptr %44, ptr %45, align 8, !tbaa !46
  br label %46

46:                                               ; preds = %43
  %47 = getelementptr inbounds nuw %struct.pmix_cb_t, ptr %5, i32 0, i32 1
  %48 = load ptr, ptr getelementptr inbounds nuw (%struct.pmix_globals_t, ptr @pmix_globals, i32 0, i32 13), align 8, !tbaa !60
  %49 = call i32 @pmix_event_assign(ptr noundef %47, ptr noundef %48, i32 noundef -1, i16 noundef signext 4, ptr noundef @_loadtp, ptr noundef %5)
  call void @pmix_atomic_wmb()
  %50 = getelementptr inbounds nuw %struct.pmix_cb_t, ptr %5, i32 0, i32 1
  call void @event_active(ptr noundef %50, i32 noundef 4, i16 noundef signext 1)
  br label %51

51:                                               ; preds = %46
  br label %52

52:                                               ; preds = %51
  br label %53

53:                                               ; preds = %52
  %54 = getelementptr inbounds nuw %struct.pmix_cb_t, ptr %5, i32 0, i32 2
  %55 = getelementptr inbounds nuw %struct.pmix_lock_t, ptr %54, i32 0, i32 1
  call void @pmix_mutex_lock(ptr noundef %55)
  br label %56

56:                                               ; preds = %61, %53
  %57 = getelementptr inbounds nuw %struct.pmix_cb_t, ptr %5, i32 0, i32 2
  %58 = getelementptr inbounds nuw %struct.pmix_lock_t, ptr %57, i32 0, i32 3
  %59 = load volatile i8, ptr %58, align 8, !tbaa !61, !range !15, !noundef !16
  %60 = trunc i8 %59 to i1
  br i1 %60, label %61, label %68

61:                                               ; preds = %56
  %62 = getelementptr inbounds nuw %struct.pmix_cb_t, ptr %5, i32 0, i32 2
  %63 = getelementptr inbounds nuw %struct.pmix_lock_t, ptr %62, i32 0, i32 2
  %64 = getelementptr inbounds nuw %struct.pmix_cb_t, ptr %5, i32 0, i32 2
  %65 = getelementptr inbounds nuw %struct.pmix_lock_t, ptr %64, i32 0, i32 1
  %66 = getelementptr inbounds nuw %struct.pmix_mutex_t, ptr %65, i32 0, i32 1
  %67 = call i32 @pthread_cond_wait(ptr noundef %63, ptr noundef %66)
  br label %56, !llvm.loop !62

68:                                               ; preds = %56
  call void @pmix_atomic_rmb()
  %69 = getelementptr inbounds nuw %struct.pmix_cb_t, ptr %5, i32 0, i32 2
  %70 = getelementptr inbounds nuw %struct.pmix_lock_t, ptr %69, i32 0, i32 1
  call void @pmix_mutex_unlock(ptr noundef %70)
  br label %71

71:                                               ; preds = %68
  br label %72

72:                                               ; preds = %71
  %73 = getelementptr inbounds nuw %struct.pmix_cb_t, ptr %5, i32 0, i32 5
  %74 = load i32, ptr %73, align 8, !tbaa !63
  store i32 %74, ptr %4, align 4, !tbaa !41
  br label %75

75:                                               ; preds = %72
  call void @pmix_obj_run_destructors(ptr noundef %5)
  br label %76

76:                                               ; preds = %75
  br label %77

77:                                               ; preds = %76
  %78 = load i32, ptr %4, align 4, !tbaa !41
  store i32 %78, ptr %2, align 4
  store i32 1, ptr %6, align 4
  br label %79

79:                                               ; preds = %77, %22
  call void @llvm.lifetime.end.p0(i64 1112, ptr %5) #10
  call void @llvm.lifetime.end.p0(i64 4, ptr %4) #10
  %80 = load i32, ptr %2, align 4
  ret i32 %80
}