; Function Attrs: nounwind uwtable
define i32 @PMIx_Load_topology(ptr noundef %0) local_unnamed_addr #0 {
  %2 = alloca %struct.pmix_cb_t, align 8
  call void @llvm.lifetime.start.p0(i64 1112, ptr nonnull %2) #12
  %3 = tail call i32 @pthread_mutex_lock(ptr noundef nonnull getelementptr inbounds nuw (i8, ptr @pmix_global_lock, i64 128)) #12
  %4 = load volatile i8, ptr getelementptr inbounds nuw (i8, ptr @pmix_global_lock, i64 216), align 8, !tbaa !3, !range !14, !noundef !15
  %5 = trunc nuw i8 %4 to i1
  br i1 %5, label %.lr.ph, label %._crit_edge

.lr.ph:                                           ; preds = %1, %.lr.ph
  %6 = tail call i32 @pthread_cond_wait(ptr noundef nonnull getelementptr inbounds nuw (i8, ptr @pmix_global_lock, i64 168), ptr noundef nonnull getelementptr inbounds nuw (i8, ptr @pmix_global_lock, i64 128)) #12
  %7 = load volatile i8, ptr getelementptr inbounds nuw (i8, ptr @pmix_global_lock, i64 216), align 8, !tbaa !3, !range !14, !noundef !15
  %8 = trunc nuw i8 %7 to i1
  br i1 %8, label %.lr.ph, label %._crit_edge, !llvm.loop !16

._crit_edge:                                      ; preds = %.lr.ph, %1
  fence acquire
  store volatile i8 1, ptr getelementptr inbounds nuw (i8, ptr @pmix_global_lock, i64 216), align 8, !tbaa !3
  %9 = load i32, ptr @pmix_globals, align 8, !tbaa !18
  %10 = icmp slt i32 %9, 1
  store volatile i8 0, ptr getelementptr inbounds nuw (i8, ptr @pmix_global_lock, i64 216), align 8, !tbaa !3
  fence release
  %11 = tail call i32 @pthread_cond_broadcast(ptr noundef nonnull getelementptr inbounds nuw (i8, ptr @pmix_global_lock, i64 168)) #12
  %12 = tail call i32 @pthread_mutex_unlock(ptr noundef nonnull getelementptr inbounds nuw (i8, ptr @pmix_global_lock, i64 128)) #12
  br i1 %10, label %pmix_obj_run_destructors.exit, label %13

13:                                               ; preds = %._crit_edge
  %14 = load i32, ptr @pmix_class_init_epoch, align 4, !tbaa !40
  %15 = load i32, ptr getelementptr inbounds nuw (i8, ptr @pmix_cb_t_class, i64 32), align 8, !tbaa !41
  %.not = icmp eq i32 %14, %15
  br i1 %.not, label %17, label %16

16:                                               ; preds = %13
  tail call void @pmix_class_initialize(ptr noundef nonnull @pmix_cb_t_class) #12
  br label %17

17:                                               ; preds = %16, %13
  %18 = getelementptr inbounds nuw i8, ptr %2, i64 40
  store ptr @pmix_cb_t_class, ptr %18, align 8, !tbaa !43
  %19 = getelementptr inbounds nuw i8, ptr %2, i64 48
  store i32 1, ptr %19, align 8, !tbaa !44
  %20 = getelementptr inbounds nuw i8, ptr %2, i64 56
  call void @llvm.memset.p0.i64(ptr noundef nonnull align 8 dereferenceable(64) %20, i8 0, i64 64, i1 false)
  %21 = load ptr, ptr getelementptr inbounds nuw (i8, ptr @pmix_cb_t_class, i64 40), align 8, !tbaa !45
  %22 = load ptr, ptr %21, align 8, !tbaa !46
  %.not6.i = icmp eq ptr %22, null
  br i1 %.not6.i, label %pmix_obj_run_constructors.exit, label %.lr.ph.i

.lr.ph.i:                                         ; preds = %17, %.lr.ph.i
  %23 = phi ptr [ %25, %.lr.ph.i ], [ %22, %17 ]
  %.07.i = phi ptr [ %24, %.lr.ph.i ], [ %21, %17 ]
  call void %23(ptr noundef nonnull %2) #12
  %24 = getelementptr inbounds nuw i8, ptr %.07.i, i64 8
  %25 = load ptr, ptr %24, align 8, !tbaa !46
  %.not.i = icmp eq ptr %25, null
  br i1 %.not.i, label %pmix_obj_run_constructors.exit, label %.lr.ph.i, !llvm.loop !47

pmix_obj_run_constructors.exit:                   ; preds = %.lr.ph.i, %17
  %26 = getelementptr inbounds nuw i8, ptr %2, i64 1104
  store ptr %0, ptr %26, align 8, !tbaa !48
  %27 = getelementptr inbounds nuw i8, ptr %2, i64 144
  %28 = load ptr, ptr getelementptr inbounds nuw (i8, ptr @pmix_globals, i64 376), align 8, !tbaa !62
  %29 = call i32 @pmix_event_assign(ptr noundef nonnull %27, ptr noundef %28, i32 noundef -1, i16 noundef signext 4, ptr noundef nonnull @_loadtp, ptr noundef nonnull %2) #12
  fence release
  call void @event_active(ptr noundef nonnull %27, i32 noundef 4, i16 noundef signext 1) #12
  %30 = getelementptr inbounds nuw i8, ptr %2, i64 400
  %31 = call i32 @pthread_mutex_lock(ptr noundef nonnull %30) #12
  %32 = getelementptr inbounds nuw i8, ptr %2, i64 488
  %33 = load volatile i8, ptr %32, align 8, !tbaa !63, !range !14, !noundef !15
  %34 = trunc nuw i8 %33 to i1
  br i1 %34, label %.lr.ph6, label %._crit_edge7

.lr.ph6:                                          ; preds = %pmix_obj_run_constructors.exit
  %35 = getelementptr inbounds nuw i8, ptr %2, i64 440
  br label %36

36:                                               ; preds = %.lr.ph6, %36
  %37 = call i32 @pthread_cond_wait(ptr noundef nonnull %35, ptr noundef nonnull %30) #12
  %38 = load volatile i8, ptr %32, align 8, !tbaa !63, !range !14, !noundef !15
  %39 = trunc nuw i8 %38 to i1
  br i1 %39, label %36, label %._crit_edge7, !llvm.loop !64

._crit_edge7:                                     ; preds = %36, %pmix_obj_run_constructors.exit
  fence acquire
  %40 = call i32 @pthread_mutex_unlock(ptr noundef nonnull %30) #12
  %41 = getelementptr inbounds nuw i8, ptr %2, i64 504
  %42 = load i32, ptr %41, align 8, !tbaa !65
  %43 = load ptr, ptr %18, align 8, !tbaa !43
  %44 = getelementptr inbounds nuw i8, ptr %43, i64 48
  %45 = load ptr, ptr %44, align 8, !tbaa !66
  %46 = load ptr, ptr %45, align 8, !tbaa !46
  %.not6.i2 = icmp eq ptr %46, null
  br i1 %.not6.i2, label %pmix_obj_run_destructors.exit, label %.lr.ph.i3

.lr.ph.i3:                                        ; preds = %._crit_edge7, %.lr.ph.i3
  %47 = phi ptr [ %49, %.lr.ph.i3 ], [ %46, %._crit_edge7 ]
  %.07.i4 = phi ptr [ %48, %.lr.ph.i3 ], [ %45, %._crit_edge7 ]
  call void %47(ptr noundef nonnull %2) #12
  %48 = getelementptr inbounds nuw i8, ptr %.07.i4, i64 8
  %49 = load ptr, ptr %48, align 8, !tbaa !46
  %.not.i5 = icmp eq ptr %49, null
  br i1 %.not.i5, label %pmix_obj_run_destructors.exit, label %.lr.ph.i3, !llvm.loop !67

pmix_obj_run_destructors.exit:                    ; preds = %.lr.ph.i3, %._crit_edge, %._crit_edge7
  %.0 = phi i32 [ %42, %._crit_edge7 ], [ -31, %._crit_edge ], [ %42, %.lr.ph.i3 ]
  call void @llvm.lifetime.end.p0(i64 1112, ptr nonnull %2) #12
  ret i32 %.0
}